target datalayout = "e-m:e-p270:32:32-p271:32:32-p272:64:64-i64:64-i128:128-f80:128-n8:16:32:64-S128"
target triple = "x86_64-pc-linux-gnu"

@.str.1 = private unnamed_addr constant [13 x i8] c"auth-scram.c\00", align 1
@.str.2 = private unnamed_addr constant [35 x i8] c"invalid SCRAM secret for user \22%s\22\00", align 1
@__func__.scram_verify_plain_password = private unnamed_addr constant [28 x i8] c"scram_verify_plain_password\00", align 1
@.str.3 = private unnamed_addr constant [33 x i8] c"could not compute server key: %s\00", align 1

; Function Attrs: nounwind uwtable
define dso_local zeroext i1 @scram_verify_plain_password(ptr noundef %0, ptr noundef %1, ptr noundef %2) #0 {
  %4 = alloca i1, align 1
  %5 = alloca ptr, align 8
  %6 = alloca ptr, align 8
  %7 = alloca ptr, align 8
  %8 = alloca ptr, align 8
  %9 = alloca ptr, align 8
  %10 = alloca i32, align 4
  %11 = alloca i32, align 4
  %12 = alloca i32, align 4
  %13 = alloca i32, align 4
  %14 = alloca [32 x i8], align 16
  %15 = alloca [32 x i8], align 16
  %16 = alloca [32 x i8], align 16
  %17 = alloca [32 x i8], align 16
  %18 = alloca ptr, align 8
  %19 = alloca i32, align 4
  %20 = alloca ptr, align 8
  %21 = alloca i32, align 4
  store ptr %0, ptr %5, align 8
  store ptr %1, ptr %6, align 8
  store ptr %2, ptr %7, align 8
  call void @llvm.lifetime.start.p0(i64 8, ptr %8) #9
  call void @llvm.lifetime.start.p0(i64 8, ptr %9) #9
  call void @llvm.lifetime.start.p0(i64 4, ptr %10) #9
  call void @llvm.lifetime.start.p0(i64 4, ptr %11) #9
  call void @llvm.lifetime.start.p0(i64 4, ptr %12) #9
  store i32 0, ptr %12, align 4
  call void @llvm.lifetime.start.p0(i64 4, ptr %13) #9
  call void @llvm.lifetime.start.p0(i64 32, ptr %14) #9
  call void @llvm.lifetime.start.p0(i64 32, ptr %15) #9
  call void @llvm.lifetime.start.p0(i64 32, ptr %16) #9
  call void @llvm.lifetime.start.p0(i64 32, ptr %17) #9
  call void @llvm.lifetime.start.p0(i64 8, ptr %18) #9
  call void @llvm.lifetime.start.p0(i64 4, ptr %19) #9
  call void @llvm.lifetime.start.p0(i64 8, ptr %20) #9
  store ptr null, ptr %20, align 8
  %22 = load ptr, ptr %7, align 8
  %23 = getelementptr inbounds [32 x i8], ptr %15, i64 0, i64 0
  %24 = getelementptr inbounds [32 x i8], ptr %16, i64 0, i64 0
  %25 = call zeroext i1 @parse_scram_secret(ptr noundef %22, ptr noundef %11, ptr noundef %13, ptr noundef %12, ptr noundef %8, ptr noundef %23, ptr noundef %24)
  br i1 %25, label %38, label %26

26:                                               ; preds = %3
  br label %27

27:                                               ; preds = %26
  br i1 false, label %28, label %30

28:                                               ; preds = %27
  %29 = call zeroext i1 @errstart_cold(i32 noundef 15, ptr noundef null) #11
  br i1 %29, label %32, label %35

30:                                               ; preds = %27
  %31 = call zeroext i1 @errstart(i32 noundef 15, ptr noundef null)
  br i1 %31, label %32, label %35

32:                                               ; preds = %30, %28
  %33 = load ptr, ptr %5, align 8
  %34 = call i32 (ptr, ...) @errmsg(ptr noundef @.str.2, ptr noundef %33)
  call void @errfinish(ptr noundef @.str.1, i32 noundef 547, ptr noundef @__func__.scram_verify_plain_password)
  br label %35

35:                                               ; preds = %32, %30, %28
  br label %36

36:                                               ; preds = %35
  br label %37

37:                                               ; preds = %36
  store i1 false, ptr %4, align 1
  store i32 1, ptr %21, align 4
  br label %115

38:                                               ; preds = %3
  %39 = load ptr, ptr %8, align 8
  %40 = call i64 @strlen(ptr noundef %39) #10
  %41 = trunc i64 %40 to i32
  %42 = call i32 @pg_b64_dec_len(i32 noundef %41)
  store i32 %42, ptr %10, align 4
  %43 = load i32, ptr %10, align 4
  %44 = sext i32 %43 to i64
  %45 = call ptr @palloc(i64 noundef %44)
  store ptr %45, ptr %9, align 8
  %46 = load ptr, ptr %8, align 8
  %47 = load ptr, ptr %8, align 8
  %48 = call i64 @strlen(ptr noundef %47) #10
  %49 = trunc i64 %48 to i32
  %50 = load ptr, ptr %9, align 8
  %51 = load i32, ptr %10, align 4
  %52 = call i32 @pg_b64_decode(ptr noundef %46, i32 noundef %49, ptr noundef %50, i32 noundef %51)
  store i32 %52, ptr %10, align 4
  %53 = load i32, ptr %10, align 4
  %54 = icmp slt i32 %53, 0
  br i1 %54, label %55, label %67

55:                                               ; preds = %38
  br label %56

56:                                               ; preds = %55
  br i1 false, label %57, label %59

57:                                               ; preds = %56
  %58 = call zeroext i1 @errstart_cold(i32 noundef 15, ptr noundef null) #11
  br i1 %58, label %61, label %64

59:                                               ; preds = %56
  %60 = call zeroext i1 @errstart(i32 noundef 15, ptr noundef null)
  br i1 %60, label %61, label %64

61:                                               ; preds = %59, %57
  %62 = load ptr, ptr %5, align 8
  %63 = call i32 (ptr, ...) @errmsg(ptr noundef @.str.2, ptr noundef %62)
  call void @errfinish(ptr noundef @.str.1, i32 noundef 558, ptr noundef @__func__.scram_verify_plain_password)
  br label %64

64:                                               ; preds = %61, %59, %57
  br label %65

65:                                               ; preds = %64
  br label %66

66:                                               ; preds = %65
  store i1 false, ptr %4, align 1
  store i32 1, ptr %21, align 4
  br label %115

67:                                               ; preds = %38
  %68 = load ptr, ptr %6, align 8
  %69 = call i32 @pg_saslprep(ptr noundef %68, ptr noundef %18)
  store i32 %69, ptr %19, align 4
  %70 = load i32, ptr %19, align 4
  %71 = icmp eq i32 %70, 0
  br i1 %71, label %72, label %74

72:                                               ; preds = %67
  %73 = load ptr, ptr %18, align 8
  store ptr %73, ptr %6, align 8
  br label %74

74:                                               ; preds = %72, %67
  %75 = load ptr, ptr %6, align 8
  %76 = load i32, ptr %13, align 4
  %77 = load i32, ptr %12, align 4
  %78 = load ptr, ptr %9, align 8
  %79 = load i32, ptr %10, align 4
  %80 = load i32, ptr %11, align 4
  %81 = getelementptr inbounds [32 x i8], ptr %14, i64 0, i64 0
  %82 = call i32 @scram_SaltedPassword(ptr noundef %75, i32 noundef %76, i32 noundef %77, ptr noundef %78, i32 noundef %79, i32 noundef %80, ptr noundef %81, ptr noundef %20)
  %83 = icmp slt i32 %82, 0
  br i1 %83, label %91, label %84

84:                                               ; preds = %74
  %85 = getelementptr inbounds [32 x i8], ptr %14, i64 0, i64 0
  %86 = load i32, ptr %13, align 4
  %87 = load i32, ptr %12, align 4
  %88 = getelementptr inbounds [32 x i8], ptr %17, i64 0, i64 0
  %89 = call i32 @scram_ServerKey(ptr noundef %85, i32 noundef %86, i32 noundef %87, ptr noundef %88, ptr noundef %20)
  %90 = icmp slt i32 %89, 0
  br i1 %90, label %91, label %103

91:                                               ; preds = %84, %74
  br label %92

92:                                               ; preds = %91
  br i1 true, label %93, label %95

93:                                               ; preds = %92
  %94 = call zeroext i1 @errstart_cold(i32 noundef 21, ptr noundef null) #11
  br i1 %94, label %97, label %100

95:                                               ; preds = %92
  %96 = call zeroext i1 @errstart(i32 noundef 21, ptr noundef null)
  br i1 %96, label %97, label %100

97:                                               ; preds = %95, %93
  %98 = load ptr, ptr %20, align 8
  %99 = call i32 (ptr, ...) @errmsg_internal(ptr noundef @.str.3, ptr noundef %98)
  call void @errfinish(ptr noundef @.str.1, i32 noundef 574, ptr noundef @__func__.scram_verify_plain_password)
  br label %100

100:                                              ; preds = %97, %95, %93
  unreachable

101:                                              ; No predecessors!
  br label %102

102:                                              ; preds = %101
  br label %103

103:                                              ; preds = %102, %84
  %104 = load ptr, ptr %18, align 8
  %105 = icmp ne ptr %104, null
  br i1 %105, label %106, label %108

106:                                              ; preds = %103
  %107 = load ptr, ptr %18, align 8
  call void @pfree(ptr noundef %107)
  br label %108

108:                                              ; preds = %106, %103
  %109 = getelementptr inbounds [32 x i8], ptr %17, i64 0, i64 0
  %110 = getelementptr inbounds [32 x i8], ptr %16, i64 0, i64 0
  %111 = load i32, ptr %12, align 4
  %112 = sext i32 %111 to i64
  %113 = call i32 @memcmp(ptr noundef %109, ptr noundef %110, i64 noundef %112) #10
  %114 = icmp eq i32 %113, 0
  store i1 %114, ptr %4, align 1
  store i32 1, ptr %21, align 4
  br label %115

115:                                              ; preds = %108, %66, %37
  call void @llvm.lifetime.end.p0(i64 8, ptr %20) #9
  call void @llvm.lifetime.end.p0(i64 4, ptr %19) #9
  call void @llvm.lifetime.end.p0(i64 8, ptr %18) #9
  call void @llvm.lifetime.end.p0(i64 32, ptr %17) #9
  call void @llvm.lifetime.end.p0(i64 32, ptr %16) #9
  call void @llvm.lifetime.end.p0(i64 32, ptr %15) #9
  call void @llvm.lifetime.end.p0(i64 32, ptr %14) #9
  call void @llvm.lifetime.end.p0(i64 4, ptr %13) #9
  call void @llvm.lifetime.end.p0(i64 4, ptr %12) #9
  call void @llvm.lifetime.end.p0(i64 4, ptr %11) #9
  call void @llvm.lifetime.end.p0(i64 4, ptr %10) #9
  call void @llvm.lifetime.end.p0(i64 8, ptr %9) #9
  call void @llvm.lifetime.end.p0(i64 8, ptr %8) #9
  %116 = load i1, ptr %4, align 1
  ret i1 %116
}