; Function Attrs: nounwind uwtable
define dso_local zeroext i1 @scram_verify_plain_password(ptr noundef %0, ptr noundef %1, ptr noundef %2) local_unnamed_addr #0 {
  %4 = alloca ptr, align 8
  %5 = alloca i32, align 4
  %6 = alloca i32, align 4
  %7 = alloca i32, align 4
  %8 = alloca [32 x i8], align 16
  %9 = alloca [32 x i8], align 16
  %10 = alloca [32 x i8], align 16
  %11 = alloca [32 x i8], align 16
  %12 = alloca ptr, align 8
  %13 = alloca ptr, align 8
  call void @llvm.lifetime.start.p0(i64 8, ptr nonnull %4) #13
  call void @llvm.lifetime.start.p0(i64 4, ptr nonnull %5) #13
  call void @llvm.lifetime.start.p0(i64 4, ptr nonnull %6) #13
  store i32 0, ptr %6, align 4
  call void @llvm.lifetime.start.p0(i64 4, ptr nonnull %7) #13
  call void @llvm.lifetime.start.p0(i64 32, ptr nonnull %8) #13
  call void @llvm.lifetime.start.p0(i64 32, ptr nonnull %9) #13
  call void @llvm.lifetime.start.p0(i64 32, ptr nonnull %10) #13
  call void @llvm.lifetime.start.p0(i64 32, ptr nonnull %11) #13
  call void @llvm.lifetime.start.p0(i64 8, ptr nonnull %12) #13
  call void @llvm.lifetime.start.p0(i64 8, ptr nonnull %13) #13
  store ptr null, ptr %13, align 8
  %14 = call zeroext i1 @parse_scram_secret(ptr noundef %2, ptr noundef nonnull %5, ptr noundef nonnull %7, ptr noundef nonnull %6, ptr noundef nonnull %4, ptr noundef nonnull %9, ptr noundef nonnull %10)
  br i1 %14, label %19, label %15

15:                                               ; preds = %3
  %16 = tail call zeroext i1 @errstart(i32 noundef 15, ptr noundef null) #13
  br i1 %16, label %17, label %56

17:                                               ; preds = %15
  %18 = tail call i32 (ptr, ...) @errmsg(ptr noundef nonnull @.str.2, ptr noundef %0) #13
  tail call void @errfinish(ptr noundef nonnull @.str.1, i32 noundef 547, ptr noundef nonnull @__func__.scram_verify_plain_password) #13
  br label %56

19:                                               ; preds = %3
  %20 = load ptr, ptr %4, align 8
  %21 = tail call i64 @strlen(ptr noundef nonnull dereferenceable(1) %20) #14
  %22 = trunc i64 %21 to i32
  %23 = tail call i32 @pg_b64_dec_len(i32 noundef %22) #13
  %24 = sext i32 %23 to i64
  %25 = tail call ptr @palloc(i64 noundef %24) #13
  %26 = tail call i64 @strlen(ptr noundef nonnull dereferenceable(1) %20) #14
  %27 = trunc i64 %26 to i32
  %28 = tail call i32 @pg_b64_decode(ptr noundef nonnull %20, i32 noundef %27, ptr noundef %25, i32 noundef %23) #13
  %29 = icmp slt i32 %28, 0
  br i1 %29, label %30, label %34

30:                                               ; preds = %19
  %31 = tail call zeroext i1 @errstart(i32 noundef 15, ptr noundef null) #13
  br i1 %31, label %32, label %56

32:                                               ; preds = %30
  %33 = tail call i32 (ptr, ...) @errmsg(ptr noundef nonnull @.str.2, ptr noundef %0) #13
  tail call void @errfinish(ptr noundef nonnull @.str.1, i32 noundef 558, ptr noundef nonnull @__func__.scram_verify_plain_password) #13
  br label %56

34:                                               ; preds = %19
  %35 = call i32 @pg_saslprep(ptr noundef %1, ptr noundef nonnull %12) #13
  %36 = icmp eq i32 %35, 0
  %37 = load ptr, ptr %12, align 8
  %spec.select = select i1 %36, ptr %37, ptr %1
  %38 = load i32, ptr %7, align 4
  %39 = load i32, ptr %6, align 4
  %40 = load i32, ptr %5, align 4
  %41 = call i32 @scram_SaltedPassword(ptr noundef %spec.select, i32 noundef %38, i32 noundef %39, ptr noundef %25, i32 noundef %28, i32 noundef %40, ptr noundef nonnull %8, ptr noundef nonnull %13) #13
  %42 = icmp slt i32 %41, 0
  br i1 %42, label %46, label %43

43:                                               ; preds = %34
  %44 = call i32 @scram_ServerKey(ptr noundef nonnull %8, i32 noundef %38, i32 noundef %39, ptr noundef nonnull %11, ptr noundef nonnull %13) #13
  %45 = icmp slt i32 %44, 0
  br i1 %45, label %46, label %50

46:                                               ; preds = %43, %34
  %47 = call zeroext i1 @errstart_cold(i32 noundef 21, ptr noundef null) #15
  call void @llvm.assume(i1 %47)
  %48 = load ptr, ptr %13, align 8
  %49 = call i32 (ptr, ...) @errmsg_internal(ptr noundef nonnull @.str.3, ptr noundef %48) #13
  call void @errfinish(ptr noundef nonnull @.str.1, i32 noundef 574, ptr noundef nonnull @__func__.scram_verify_plain_password) #13
  unreachable

50:                                               ; preds = %43
  %51 = load ptr, ptr %12, align 8
  %.not = icmp eq ptr %51, null
  br i1 %.not, label %53, label %52

52:                                               ; preds = %50
  call void @pfree(ptr noundef nonnull %51) #13
  br label %53

53:                                               ; preds = %52, %50
  %54 = sext i32 %39 to i64
  %bcmp = call i32 @bcmp(ptr nonnull %11, ptr nonnull %10, i64 %54)
  %55 = icmp eq i32 %bcmp, 0
  br label %56

56:                                               ; preds = %30, %32, %15, %17, %53
  %.0 = phi i1 [ %55, %53 ], [ false, %17 ], [ false, %15 ], [ false, %32 ], [ false, %30 ]
  call void @llvm.lifetime.end.p0(i64 8, ptr nonnull %13) #13
  call void @llvm.lifetime.end.p0(i64 8, ptr nonnull %12) #13
  call void @llvm.lifetime.end.p0(i64 32, ptr nonnull %11) #13
  call void @llvm.lifetime.end.p0(i64 32, ptr nonnull %10) #13
  call void @llvm.lifetime.end.p0(i64 32, ptr nonnull %9) #13
  call void @llvm.lifetime.end.p0(i64 32, ptr nonnull %8) #13
  call void @llvm.lifetime.end.p0(i64 4, ptr nonnull %7) #13
  call void @llvm.lifetime.end.p0(i64 4, ptr nonnull %6) #13
  call void @llvm.lifetime.end.p0(i64 4, ptr nonnull %5) #13
  call void @llvm.lifetime.end.p0(i64 8, ptr nonnull %4) #13
  ret i1 %.0
}